target datalayout = "e-m:e-p270:32:32-p271:32:32-p272:64:64-i64:64-i128:128-f80:128-n8:16:32:64-S128"
target triple = "x86_64-pc-linux-gnu"

%struct._zend_libxml_globals = type { %struct._zval_struct, %struct.smart_str, ptr, %struct._zend_fcall_info_cache, i8 }
%struct._zval_struct = type { %union._zend_value, %union.anon, %union.anon.2 }
%union._zend_value = type { i64 }
%union.anon = type { i32 }
%union.anon.2 = type { i32 }
%struct.smart_str = type { ptr, i64 }
%struct._zend_fcall_info_cache = type { ptr, ptr, ptr, ptr, ptr }
%struct._xmlError = type { i32, i32, ptr, i32, ptr, i32, ptr, ptr, ptr, i32, i32, ptr, ptr }
%struct.__va_list_tag = type { i32, i32, ptr, ptr }

@libxml_globals = internal global %struct._zend_libxml_globals zeroinitializer, align 8

; Function Attrs: nounwind uwtable
define void @php_libxml_pretend_ctx_error_ex(ptr noundef %0, i32 noundef %1, i32 noundef %2, ptr noundef %3, ...) #0 {
  %5 = alloca ptr, align 8
  %6 = alloca ptr, align 8
  %7 = alloca i32, align 4
  %8 = alloca i32, align 4
  %9 = alloca ptr, align 8
  %10 = alloca [1 x %struct.__va_list_tag], align 16
  %11 = alloca ptr, align 8
  store ptr %0, ptr %6, align 8
  store i32 %1, ptr %7, align 4
  store i32 %2, ptr %8, align 4
  store ptr %3, ptr %9, align 8
  %12 = getelementptr inbounds [1 x %struct.__va_list_tag], ptr %10, i64 0, i64 0
  call void @llvm.va_start(ptr %12)
  %13 = getelementptr inbounds [1 x %struct.__va_list_tag], ptr %10, i64 0, i64 0
  %14 = load i32, ptr %7, align 4
  %15 = load i32, ptr %8, align 4
  call void @php_libxml_internal_error_handler_ex(i32 noundef 1, ptr noundef null, ptr noundef %9, ptr noundef %13, i32 noundef %14, i32 noundef %15)
  %16 = getelementptr inbounds [1 x %struct.__va_list_tag], ptr %10, i64 0, i64 0
  call void @llvm.va_end(ptr %16)
  %17 = load ptr, ptr getelementptr inbounds (%struct._zend_libxml_globals, ptr @libxml_globals, i32 0, i32 2), align 8
  %18 = icmp ne ptr %17, null
  br i1 %18, label %19, label %40

19:                                               ; preds = %4
  %20 = load ptr, ptr getelementptr inbounds (%struct._zend_libxml_globals, ptr @libxml_globals, i32 0, i32 2), align 8
  store ptr %20, ptr %5, align 8
  %21 = load ptr, ptr %5, align 8
  %22 = call ptr @zend_llist_get_last_ex(ptr noundef %21, ptr noundef null) #11
  store ptr %22, ptr %11, align 8
  %23 = load ptr, ptr %11, align 8
  %24 = icmp ne ptr %23, null
  br i1 %24, label %25, label %39

25:                                               ; preds = %19
  %26 = load ptr, ptr %11, align 8
  %27 = getelementptr inbounds %struct._xmlError, ptr %26, i32 0, i32 4
  %28 = load ptr, ptr %27, align 8
  %29 = icmp ne ptr %28, null
  br i1 %29, label %35, label %30

30:                                               ; preds = %25
  %31 = load ptr, ptr %6, align 8
  %32 = call noalias ptr @strdup(ptr noundef %31) #11
  %33 = load ptr, ptr %11, align 8
  %34 = getelementptr inbounds %struct._xmlError, ptr %33, i32 0, i32 4
  store ptr %32, ptr %34, align 8
  br label %35

35:                                               ; preds = %30, %25
  %36 = load ptr, ptr %11, align 8
  %37 = call ptr @__xmlLastError()
  %38 = call i32 @xmlCopyError(ptr noundef %36, ptr noundef %37)
  br label %39

39:                                               ; preds = %35, %19
  br label %40

40:                                               ; preds = %39, %4
  ret void
}