; Function Attrs: nounwind uwtable
define void @php_libxml_pretend_ctx_error_ex(ptr nocapture noundef readonly %0, i32 noundef %1, i32 noundef %2, ptr noundef %3, ...) local_unnamed_addr #0 {
  %5 = alloca [1 x %struct.__va_list_tag], align 16
  call void @llvm.va_start(ptr nonnull %5)
  call fastcc void @php_libxml_internal_error_handler_ex(i32 noundef 1, ptr noundef null, ptr %3, ptr noundef nonnull %5, i32 noundef %1, i32 noundef %2)
  call void @llvm.va_end(ptr nonnull %5)
  %6 = load ptr, ptr getelementptr inbounds (%struct._zend_libxml_globals, ptr @libxml_globals, i64 0, i32 2), align 8
  %.not = icmp eq ptr %6, null
  br i1 %.not, label %17, label %7

7:                                                ; preds = %4
  %8 = call ptr @zend_llist_get_last_ex(ptr noundef nonnull %6, ptr noundef null) #17
  %.not8 = icmp eq ptr %8, null
  br i1 %.not8, label %17, label %9

9:                                                ; preds = %7
  %10 = getelementptr inbounds i8, ptr %8, i64 24
  %11 = load ptr, ptr %10, align 8
  %.not9 = icmp eq ptr %11, null
  br i1 %.not9, label %12, label %14

12:                                               ; preds = %9
  %13 = call noalias ptr @strdup(ptr noundef %0) #17
  store ptr %13, ptr %10, align 8
  br label %14

14:                                               ; preds = %12, %9
  %15 = call ptr @__xmlLastError() #17
  %16 = call i32 @xmlCopyError(ptr noundef nonnull %8, ptr noundef %15) #17
  br label %17

17:                                               ; preds = %7, %14, %4
  ret void
}